target datalayout = "e-m:e-p270:32:32-p271:32:32-p272:64:64-i64:64-i128:128-f80:128-n8:16:32:64-S128"
target triple = "x86_64-pc-linux-gnu"

%"class.crypto::(anonymous namespace)::SecureHashSHA256" = type { %"class.crypto::SecureHash", %struct.sha256_state_st }
%"class.crypto::SecureHash" = type { ptr }
%struct.sha256_state_st = type { [8 x i32], i32, i32, [64 x i8], i32, i32 }
%"class.crypto::ScopedOpenSSLSafeSizeBuffer" = type { ptr, i64, [32 x i8] }

; Function Attrs: mustprogress nounwind uwtable
define linkonce_odr void @_ZN6crypto27ScopedOpenSSLSafeSizeBufferILi32EED2Ev(ptr noundef nonnull align 8 dereferenceable(48) %0) unnamed_addr #2 comdat align 2 {
  %2 = alloca ptr, align 8
  store ptr %0, ptr %2, align 8, !tbaa !80
  %3 = load ptr, ptr %2, align 8
  %4 = getelementptr inbounds nuw %"class.crypto::ScopedOpenSSLSafeSizeBuffer", ptr %3, i32 0, i32 1
  %5 = load i64, ptr %4, align 8, !tbaa !84
  %6 = icmp ult i64 %5, 32
  br i1 %6, label %7, label %14

7:                                                ; preds = %1
  %8 = getelementptr inbounds nuw %"class.crypto::ScopedOpenSSLSafeSizeBuffer", ptr %3, i32 0, i32 0
  %9 = load ptr, ptr %8, align 8, !tbaa !82
  %10 = getelementptr inbounds nuw %"class.crypto::ScopedOpenSSLSafeSizeBuffer", ptr %3, i32 0, i32 2
  %11 = getelementptr inbounds [32 x i8], ptr %10, i64 0, i64 0
  %12 = getelementptr inbounds nuw %"class.crypto::ScopedOpenSSLSafeSizeBuffer", ptr %3, i32 0, i32 1
  %13 = load i64, ptr %12, align 8, !tbaa !84
  call void @llvm.memcpy.p0.p0.i64(ptr align 1 %9, ptr align 8 %11, i64 %13, i1 false)
  br label %14

14:                                               ; preds = %7, %1
  ret void
}

; Function Attrs: mustprogress nounwind uwtable
define linkonce_odr noundef ptr @_ZN6crypto27ScopedOpenSSLSafeSizeBufferILi32EE11safe_bufferEv(ptr noundef nonnull align 8 dereferenceable(48) %0) #2 comdat align 2 {
  %2 = alloca ptr, align 8
  store ptr %0, ptr %2, align 8, !tbaa !80
  %3 = load ptr, ptr %2, align 8
  %4 = getelementptr inbounds nuw %"class.crypto::ScopedOpenSSLSafeSizeBuffer", ptr %3, i32 0, i32 1
  %5 = load i64, ptr %4, align 8, !tbaa !84
  %6 = icmp ult i64 %5, 32
  br i1 %6, label %7, label %10

7:                                                ; preds = %1
  %8 = getelementptr inbounds nuw %"class.crypto::ScopedOpenSSLSafeSizeBuffer", ptr %3, i32 0, i32 2
  %9 = getelementptr inbounds [32 x i8], ptr %8, i64 0, i64 0
  br label %13

10:                                               ; preds = %1
  %11 = getelementptr inbounds nuw %"class.crypto::ScopedOpenSSLSafeSizeBuffer", ptr %3, i32 0, i32 0
  %12 = load ptr, ptr %11, align 8, !tbaa !82
  br label %13

13:                                               ; preds = %10, %7
  %14 = phi ptr [ %9, %7 ], [ %12, %10 ]
  ret ptr %14
}

; Function Attrs: mustprogress nounwind uwtable
define linkonce_odr void @_ZN6crypto27ScopedOpenSSLSafeSizeBufferILi32EEC2EPhm(ptr noundef nonnull align 8 dereferenceable(48) %0, ptr noundef %1, i64 noundef %2) unnamed_addr #2 comdat align 2 {
  %4 = alloca ptr, align 8
  %5 = alloca ptr, align 8
  %6 = alloca i64, align 8
  store ptr %0, ptr %4, align 8, !tbaa !80
  store ptr %1, ptr %5, align 8, !tbaa !20
  store i64 %2, ptr %6, align 8, !tbaa !79
  %7 = load ptr, ptr %4, align 8
  %8 = getelementptr inbounds nuw %"class.crypto::ScopedOpenSSLSafeSizeBuffer", ptr %7, i32 0, i32 0
  %9 = load ptr, ptr %5, align 8, !tbaa !20
  store ptr %9, ptr %8, align 8, !tbaa !82
  %10 = getelementptr inbounds nuw %"class.crypto::ScopedOpenSSLSafeSizeBuffer", ptr %7, i32 0, i32 1
  %11 = load i64, ptr %6, align 8, !tbaa !79
  store i64 %11, ptr %10, align 8, !tbaa !84
  ret void
}

; Function Attrs: mustprogress uwtable
define internal void @_ZN6crypto12_GLOBAL__N_116SecureHashSHA2566FinishEPvm(ptr noundef nonnull align 8 dereferenceable(120) %0, ptr noundef %1, i64 noundef %2) unnamed_addr #0 align 2 personality ptr @__gxx_personality_v0 {
  %4 = alloca ptr, align 8
  %5 = alloca ptr, align 8
  %6 = alloca i64, align 8
  %7 = alloca %"class.crypto::ScopedOpenSSLSafeSizeBuffer", align 8
  %8 = alloca ptr, align 8
  %9 = alloca i32, align 4
  store ptr %0, ptr %4, align 8, !tbaa !14
  store ptr %1, ptr %5, align 8, !tbaa !78
  store i64 %2, ptr %6, align 8, !tbaa !79
  %10 = load ptr, ptr %4, align 8
  call void @llvm.lifetime.start.p0(i64 48, ptr %7) #13
  %11 = load ptr, ptr %5, align 8, !tbaa !78
  %12 = load i64, ptr %6, align 8, !tbaa !79
  call void @_ZN6crypto27ScopedOpenSSLSafeSizeBufferILi32EEC2EPhm(ptr noundef nonnull align 8 dereferenceable(48) %7, ptr noundef %11, i64 noundef %12)
  %13 = invoke noundef ptr @_ZN6crypto27ScopedOpenSSLSafeSizeBufferILi32EE11safe_bufferEv(ptr noundef nonnull align 8 dereferenceable(48) %7)
          to label %14 unwind label %18

14:                                               ; preds = %3
  %15 = getelementptr inbounds nuw %"class.crypto::(anonymous namespace)::SecureHashSHA256", ptr %10, i32 0, i32 1
  %16 = invoke i32 @SHA256_Final(ptr noundef %13, ptr noundef %15)
          to label %17 unwind label %18

17:                                               ; preds = %14
  call void @_ZN6crypto27ScopedOpenSSLSafeSizeBufferILi32EED2Ev(ptr noundef nonnull align 8 dereferenceable(48) %7) #13
  call void @llvm.lifetime.end.p0(i64 48, ptr %7) #13
  ret void

18:                                               ; preds = %14, %3
  %19 = landingpad { ptr, i32 }
          cleanup
  %20 = extractvalue { ptr, i32 } %19, 0
  store ptr %20, ptr %8, align 8
  %21 = extractvalue { ptr, i32 } %19, 1
  store i32 %21, ptr %9, align 4
  call void @_ZN6crypto27ScopedOpenSSLSafeSizeBufferILi32EED2Ev(ptr noundef nonnull align 8 dereferenceable(48) %7) #13
  call void @llvm.lifetime.end.p0(i64 48, ptr %7) #13
  br label %22

22:                                               ; preds = %18
  %23 = load ptr, ptr %8, align 8
  %24 = load i32, ptr %9, align 4
  %25 = insertvalue { ptr, i32 } poison, ptr %23, 0
  %26 = insertvalue { ptr, i32 } %25, i32 %24, 1
  resume { ptr, i32 } %26
}