; Function Attrs: mustprogress uwtable
define internal void @_ZN6crypto12_GLOBAL__N_116SecureHashSHA2566FinishEPvm(ptr noundef nonnull align 8 dereferenceable(120) %0, ptr noundef %1, i64 noundef %2) unnamed_addr #0 align 2 personality ptr @__gxx_personality_v0 {
  %4 = alloca %"class.crypto::ScopedOpenSSLSafeSizeBuffer", align 8
  call void @llvm.lifetime.start.p0(i64 48, ptr nonnull %4) #13
  store ptr %1, ptr %4, align 8, !tbaa !14
  %5 = getelementptr inbounds nuw i8, ptr %4, i64 8
  store i64 %2, ptr %5, align 8, !tbaa !18
  %6 = icmp ult i64 %2, 32
  %7 = getelementptr inbounds nuw i8, ptr %4, i64 16
  %8 = select i1 %6, ptr %7, ptr %1
  %9 = getelementptr inbounds nuw i8, ptr %0, i64 8
  %10 = invoke i32 @SHA256_Final(ptr noundef %8, ptr noundef nonnull %9)
          to label %11 unwind label %16

11:                                               ; preds = %3
  %12 = load i64, ptr %5, align 8, !tbaa !18
  %13 = icmp ult i64 %12, 32
  br i1 %13, label %14, label %_ZN6crypto27ScopedOpenSSLSafeSizeBufferILi32EED2Ev.exit

14:                                               ; preds = %11
  %15 = load ptr, ptr %4, align 8, !tbaa !14
  call void @llvm.memcpy.p0.p0.i64(ptr align 1 %15, ptr nonnull align 8 %7, i64 %12, i1 false)
  br label %_ZN6crypto27ScopedOpenSSLSafeSizeBufferILi32EED2Ev.exit

_ZN6crypto27ScopedOpenSSLSafeSizeBufferILi32EED2Ev.exit: ; preds = %11, %14
  call void @llvm.lifetime.end.p0(i64 48, ptr nonnull %4) #13
  ret void

16:                                               ; preds = %3
  %17 = landingpad { ptr, i32 }
          cleanup
  %18 = load i64, ptr %5, align 8, !tbaa !18
  %19 = icmp ult i64 %18, 32
  br i1 %19, label %20, label %_ZN6crypto27ScopedOpenSSLSafeSizeBufferILi32EED2Ev.exit4

20:                                               ; preds = %16
  %21 = load ptr, ptr %4, align 8, !tbaa !14
  call void @llvm.memcpy.p0.p0.i64(ptr align 1 %21, ptr nonnull align 8 %7, i64 %18, i1 false)
  br label %_ZN6crypto27ScopedOpenSSLSafeSizeBufferILi32EED2Ev.exit4

_ZN6crypto27ScopedOpenSSLSafeSizeBufferILi32EED2Ev.exit4: ; preds = %16, %20
  call void @llvm.lifetime.end.p0(i64 48, ptr nonnull %4) #13
  resume { ptr, i32 } %17
}